#include <math.h>
#include <stdio.h>
#include <stdlib.h>
#include <string.h>
#include <iostream>
using namespace std;

int main()
{
	int n;
	cin>>n;
	int sum=0;
	for(int i=1;i<=n;i++)
	{
		if(i%10==7||i>69&&i<80||i%7==0)
			continue;
		else
			sum+=i*i;
	}
	printf("%d\n",sum);
	return 0;
}